; Function Attrs: mustprogress uwtable
define hidden noundef zeroext i1 @_Z20has_skolem_functionsP4expr(ptr noundef %0) local_unnamed_addr #3 personality ptr @__gxx_personality_v0 {
  %2 = alloca %class.obj_mark, align 8
  %3 = alloca %"struct.has_skolem_functions_ns::proc", align 1
  call void @llvm.lifetime.start.p0(i64 1, ptr nonnull %3) #24
  call void @llvm.lifetime.start.p0(i64 24, ptr nonnull %2) #24
  %4 = getelementptr inbounds nuw i8, ptr %2, i64 8
  call void @llvm.memset.p0.i64(ptr noundef nonnull align 8 dereferenceable(16) %4, i8 0, i64 16, i1 false)
  invoke void @_Z18for_each_expr_coreIN23has_skolem_functions_ns4procE8obj_markI4expr10bit_vector14default_t2uintIS3_EELb0ELb0EEvRT_RT0_PS3_(ptr noundef nonnull align 1 dereferenceable(1) %3, ptr noundef nonnull align 8 dereferenceable(24) %2, ptr noundef %0)
          to label %5 unwind label %.body

5:                                                ; preds = %1
  %6 = getelementptr inbounds nuw i8, ptr %2, i64 16
  %7 = load ptr, ptr %6, align 8, !tbaa !71
  %8 = icmp eq ptr %7, null
  br i1 %8, label %_Z13for_each_exprIN23has_skolem_functions_ns4procEEvRT_P4expr.exit, label %9

9:                                                ; preds = %5
  invoke void @_ZN6memory10deallocateEPv(ptr noundef nonnull %7)
          to label %_Z13for_each_exprIN23has_skolem_functions_ns4procEEvRT_P4expr.exit unwind label %10

10:                                               ; preds = %9
  %11 = landingpad { ptr, i32 }
          catch ptr null
  %12 = extractvalue { ptr, i32 } %11, 0
  call void @__clang_call_terminate(ptr %12) #25
  unreachable

.body:                                            ; preds = %1
  %13 = landingpad { ptr, i32 }
          cleanup
          catch ptr @_ZTIN23has_skolem_functions_ns5foundE
  call void @_ZN8obj_markI4expr10bit_vector14default_t2uintIS0_EED2Ev(ptr noundef nonnull align 8 dereferenceable(24) %2) #24
  call void @llvm.lifetime.end.p0(i64 24, ptr nonnull %2) #24
  %14 = extractvalue { ptr, i32 } %13, 1
  %15 = call i32 @llvm.eh.typeid.for.p0(ptr nonnull @_ZTIN23has_skolem_functions_ns5foundE) #24
  %16 = icmp eq i32 %14, %15
  br i1 %16, label %17, label %21

_Z13for_each_exprIN23has_skolem_functions_ns4procEEvRT_P4expr.exit: ; preds = %5, %9
  call void @llvm.lifetime.end.p0(i64 24, ptr nonnull %2) #24
  br label %20

17:                                               ; preds = %.body
  %18 = extractvalue { ptr, i32 } %13, 0
  %19 = call ptr @__cxa_begin_catch(ptr %18) #24
  call void @__cxa_end_catch()
  br label %20

20:                                               ; preds = %_Z13for_each_exprIN23has_skolem_functions_ns4procEEvRT_P4expr.exit, %17
  %.0 = phi i1 [ true, %17 ], [ false, %_Z13for_each_exprIN23has_skolem_functions_ns4procEEvRT_P4expr.exit ]
  call void @llvm.lifetime.end.p0(i64 1, ptr nonnull %3) #24
  ret i1 %.0

21:                                               ; preds = %.body
  call void @llvm.lifetime.end.p0(i64 1, ptr nonnull %3) #24
  resume { ptr, i32 } %13
}